(lp0
(lp1
I64
aI11
aI63
aI10
aI10
aI10
aI10
aI10
aI11
aI10
aI10
aI10
aI11
aI11
aI11
aI11
aI11
aI10
aI10
aI11
aI11
aI10
aI10
aI10
aI10
aI9
aI11
aI9
aI11
aI10
aI12
aI11
aI11
aI9
aI10
aI10
aI11
aI10
aI11
aI10
aI10
aI11
aI10
aI11
aI11
aI10
aI11
aI10
aI11
aI10
aI10
aI10
aI10
aI10
aI10
aI11
aI11
aI11
aI11
aI11
aI11
aI10
aI10
aI10
aI10
aI11
aI11
aI11
aI9
aI5
aI64
aI37
aI11
aI10
aI10
aI10
aI10
aI12
aI11
aI11
aI11
aI11
aI12
aI10
aI10
aI10
aI10
aI10
aI4
aI6
aI64
aI39
aI10
aI10
aI10
aI9
aI9
aI10
aI10
aI10
aI11
aI10
aI10
aI10
aI10
aI10
aI10
aI9
aI9
aI9
aI10
aI11
aI10
aI11
aI11
aI11
aI11
aI11
aI11
aI11
aI11
aI11
aI11
aI12
aI12
aI12
aI11
aI10
aI10
aI10
aI9
aI10
aI10
aI10
aI10
aI10
aI66
aI57
aI3
aI3
aI14
aI62
aI60
aI59
aI59
aI58
aI57
aI56
aI56
aI56
aI56
aI56
aI55
aI55
aI54
aI54
aI54
aI53
aI53
aI53
aI53
aI53
aI52
aI52
aI52
aI52
aI52
aI51
aI51
aI51
aI51
aI51
aI51
aI51
aI51
aI51
aI51
aI51
aI51
aI51
aI51
aI51
aI51
aI51
aI51
aI51
aI51
aI51
aI51
aI51
aI51
aI51
aI51
aI51
aI51
aI51
aI51
aI51
aa(lp2
I6
aI59
aI7
aI60
aI60
aI60
aI60
aI60
aI59
aI60
aI60
aI60
aI59
aI59
aI59
aI59
aI59
aI60
aI60
aI59
aI59
aI60
aI60
aI60
aI60
aI61
aI59
aI61
aI59
aI60
aI58
aI59
aI59
aI61
aI60
aI60
aI59
aI60
aI59
aI60
aI60
aI59
aI60
aI59
aI59
aI60
aI59
aI60
aI59
aI60
aI60
aI60
aI60
aI60
aI60
aI59
aI59
aI59
aI59
aI59
aI59
aI60
aI60
aI60
aI60
aI59
aI59
aI59
aI61
aI65
aI6
aI33
aI59
aI60
aI60
aI60
aI60
aI58
aI59
aI59
aI59
aI59
aI58
aI60
aI60
aI60
aI60
aI60
aI66
aI64
aI6
aI31
aI60
aI60
aI60
aI61
aI61
aI60
aI60
aI60
aI59
aI60
aI60
aI60
aI60
aI60
aI60
aI61
aI61
aI61
aI60
aI59
aI60
aI59
aI59
aI59
aI59
aI59
aI59
aI59
aI59
aI59
aI59
aI58
aI58
aI58
aI59
aI60
aI60
aI60
aI61
aI60
aI60
aI60
aI60
aI60
aI4
aI13
aI67
aI67
aI56
aI8
aI10
aI11
aI11
aI12
aI13
aI14
aI14
aI14
aI14
aI14
aI15
aI15
aI16
aI16
aI16
aI17
aI17
aI17
aI17
aI17
aI18
aI18
aI18
aI18
aI18
aI19
aI19
aI19
aI19
aI19
aI19
aI19
aI19
aI19
aI19
aI19
aI19
aI19
aI19
aI19
aI19
aI19
aI19
aI19
aI19
aI19
aI19
aI19
aI19
aI19
aI19
aI19
aI19
aI19
aI19
aI19
aa(lp3
I570
aI667
aI635
aI48
aI45
aI50
aI47
aI45
aI45
aI49
aI45
aI48
aI53
aI44
aI44
aI48
aI44
aI50
aI44
aI44
aI47
aI50
aI45
aI45
aI49
aI65
aI516
aI157
aI348
aI55
aI47
aI47
aI46
aI56
aI51
aI54
aI48
aI53
aI47
aI47
aI48
aI46
aI51
aI50
aI46
aI45
aI45
aI44
aI45
aI46
aI47
aI47
aI46
aI46
aI45
aI45
aI44
aI45
aI45
aI45
aI45
aI46
aI47
aI49
aI47
aI48
aI44
aI46
aI48
aI45
aI614
aI46
aI45
aI47
aI47
aI44
aI44
aI42
aI45
aI43
aI44
aI43
aI47
aI48
aI52
aI53
aI50
aI45
aI45
aI46
aI584
aI43
aI47
aI47
aI46
aI48
aI46
aI53
aI53
aI56
aI47
aI47
aI45
aI45
aI48
aI56
aI61
aI51
aI49
aI63
aI52
aI45
aI45
aI44
aI45
aI45
aI46
aI46
aI46
aI46
aI45
aI45
aI45
aI43
aI43
aI43
aI46
aI50
aI48
aI47
aI48
aI51
aI51
aI49
aI47
aI45
aI868
aI833
aI48
aI50
aI349
aI764
aI924
aI996
aI1010
aI1011
aI1019
aI1020
aI1021
aI1022
aI1022
aI1023
aI1022
aI1022
aI1023
aI1023
aI1022
aI1021
aI1020
aI1023
aI1023
aI1023
aI1023
aI1023
aI1023
aI1022
aI1019
aI1023
aI1023
aI1022
aI1023
aI1023
aI1023
aI1023
aI1023
aI1023
aI1023
aI1023
aI1023
aI1023
aI1023
aI1023
aI1023
aI1023
aI1023
aI1023
aI1023
aI1023
aI1023
aI1023
aI1023
aI1023
aI1023
aI1023
aI1023
aI1023
aI1023
aI1023
aa(lp4
I85
aI762
aI259
aI241
aI165
aI203
aI201
aI173
aI92
aI206
aI162
aI177
aI143
aI129
aI92
aI119
aI101
aI234
aI220
aI108
aI144
aI165
aI180
aI221
aI170
aI273
aI542
aI362
aI452
aI245
aI62
aI78
aI159
aI280
aI216
aI242
aI147
aI182
aI148
aI220
aI232
aI155
aI190
aI128
aI122
aI168
aI139
aI167
aI136
aI188
aI176
aI176
aI184
aI179
aI180
aI114
aI113
aI110
aI111
aI115
aI130
aI172
aI211
aI207
aI171
aI110
aI89
aI133
aI286
aI667
aI135
aI99
aI139
aI182
aI200
aI221
aI164
aI62
aI144
aI93
aI105
aI74
aI48
aI221
aI184
aI171
aI245
aI180
aI726
aI529
aI152
aI206
aI230
aI209
aI243
aI257
aI288
aI196
aI209
aI255
aI156
aI183
aI193
aI170
aI238
aI226
aI260
aI275
aI273
aI292
aI250
aI137
aI167
aI145
aI105
aI99
aI107
aI105
aI105
aI101
aI96
aI90
aI122
aI58
aI55
aI54
aI124
aI239
aI222
aI238
aI272
aI211
aI170
aI233
aI233
aI165
aI189
aI866
aI830
aI890
aI306
aI445
aI853
aI985
aI1010
aI1016
aI1019
aI1021
aI1022
aI1022
aI1022
aI1019
aI1023
aI1023
aI1023
aI1023
aI1023
aI1023
aI1023
aI1023
aI1023
aI1023
aI1023
aI1023
aI1023
aI1023
aI1023
aI1023
aI1023
aI1023
aI1023
aI1023
aI1023
aI1023
aI1023
aI1023
aI1023
aI1023
aI1023
aI1023
aI1023
aI1023
aI1023
aI1023
aI1023
aI1023
aI1023
aI1023
aI1023
aI1023
aI1023
aI1023
aI1023
aI1023
aI1023
aI1023
aI1023
aI1023
aa(lp5
I20226
aI53
aI107
aI161
aI212
aI263
aI317
aI371
aI422
aI473
aI527
aI578
aI632
aI683
aI734
aI788
aI842
aI897
aI948
aI1002
aI1056
aI1107
aI1158
aI1209
aI1263
aI1317
aI1369
aI1423
aI1474
aI1528
aI1579
aI1630
aI1684
aI1735
aI1789
aI1840
aI1891
aI1945
aI1999
aI2051
aI2105
aI2156
aI2210
aI2265
aI2316
aI2370
aI2424
aI2476
aI2530
aI2581
aI2635
aI2690
aI2741
aI2795
aI2846
aI2900
aI2951
aI3002
aI3056
aI3107
aI3158
aI3212
aI3263
aI3317
aI3368
aI3419
aI3473
aI3524
aI3578
aI3629
aI3680
aI3734
aI3785
aI3840
aI3891
aI3945
aI3999
aI4050
aI4101
aI4155
aI4206
aI4260
aI4312
aI4366
aI4420
aI4471
aI4526
aI4580
aI4631
aI4685
aI4736
aI4787
aI4841
aI4892
aI4946
aI4997
aI5048
aI5102
aI5153
aI5208
aI5262
aI5313
aI5367
aI5422
aI5473
aI5527
aI5578
aI5633
aI5687
aI5741
aI5792
aI5847
aI5898
aI5952
aI6006
aI6057
aI6108
aI6162
aI6213
aI6267
aI6319
aI6373
aI6427
aI6478
aI6529
aI6583
aI6634
aI6688
aI6743
aI6794
aI6848
aI6902
aI6953
aI7004
aI7055
aI7109
aI7163
aI7215
aI7269
aI7320
aI7374
aI7425
aI7476
aI7530
aI7581
aI7632
aI7683
aI7734
aI7785
aI7836
aI7890
aI7942
aI7993
aI8047
aI8098
aI8150
aI8204
aI8255
aI8306
aI8360
aI8412
aI8463
aI8517
aI8568
aI8620
aI8674
aI8725
aI8779
aI8830
aI8882
aI8936
aI8987
aI9038
aI9089
aI9140
aI9194
aI9245
aI9296
aI9347
aI9398
aI9449
aI9503
aI9554
aI9605
aI9656
aI9707
aI9761
aI9812
aI9864
aI9918
aI9969
aI10023
aI10075
aI10126
aI10177
aI10231
aI10283
aI10334
aa.