(lp0
(lp1
I5
aI5
aI12
aI11
aI10
aI11
aI12
aI11
aI11
aI11
aI11
aI7
aI11
aI11
aI11
aI11
aI10
aI5
aI4
aI7
aI12
aI17
aI64
aI64
aI63
aI40
aI18
aI10
aI10
aI11
aI10
aI12
aI47
aI63
aI64
aI59
aI34
aI15
aI11
aI11
aI11
aI11
aI17
aI64
aI63
aI62
aI47
aI11
aI10
aI11
aI12
aI11
aI12
aI63
aI63
aI64
aI45
aI22
aI11
aI64
aI20
aI11
aI12
aI11
aI63
aI64
aI63
aI64
aI63
aI16
aI10
aI10
aI11
aI64
aI64
aI62
aI35
aI11
aI11
aI11
aI63
aI63
aI61
aI54
aI35
aI11
aI11
aI11
aI11
aI58
aI63
aI63
aI60
aI34
aI11
aI11
aI10
aI63
aI63
aI63
aI64
aI45
aI11
aI12
aI11
aI11
aI63
aI65
aI64
aI17
aI11
aI11
aI11
aI64
aI64
aI63
aI10
aI11
aI11
aI64
aI64
aI63
aI53
aI36
aI29
aI12
aI11
aI64
aI64
aI63
aI63
aI11
aI10
aI10
aI63
aI63
aI63
aI35
aI11
aI11
aI64
aI64
aI63
aI64
aI62
aI10
aI11
aI10
aI62
aI63
aI63
aI26
aI11
aI11
aI12
aI63
aI64
aI63
aI10
aI9
aI10
aI63
aI63
aI63
aI63
aI26
aI12
aI12
aI63
aI62
aI64
aI62
aI53
aI33
aI7
aI12
aI10
aI20
aI63
aI61
aI63
aI63
aI16
aI11
aI12
aI12
aI64
aI64
aI65
aI54
aI46
aI5
aI5
aI4
aI11
aI10
aI10
aa(lp2
I65
aI65
aI58
aI59
aI60
aI59
aI58
aI59
aI59
aI59
aI59
aI63
aI59
aI59
aI59
aI59
aI60
aI65
aI66
aI63
aI58
aI53
aI6
aI6
aI7
aI30
aI52
aI60
aI60
aI59
aI60
aI58
aI23
aI7
aI6
aI11
aI36
aI55
aI59
aI59
aI59
aI59
aI53
aI6
aI7
aI8
aI23
aI59
aI60
aI59
aI58
aI59
aI58
aI7
aI7
aI6
aI25
aI48
aI59
aI6
aI50
aI59
aI58
aI59
aI7
aI6
aI7
aI6
aI7
aI54
aI60
aI60
aI59
aI6
aI6
aI8
aI35
aI59
aI59
aI59
aI7
aI7
aI9
aI16
aI35
aI59
aI59
aI59
aI59
aI12
aI7
aI7
aI10
aI36
aI59
aI59
aI60
aI7
aI7
aI7
aI6
aI25
aI59
aI58
aI59
aI59
aI7
aI5
aI6
aI53
aI59
aI59
aI59
aI6
aI6
aI7
aI60
aI59
aI59
aI6
aI6
aI7
aI17
aI34
aI41
aI58
aI59
aI6
aI6
aI7
aI7
aI59
aI60
aI60
aI7
aI7
aI7
aI35
aI59
aI59
aI6
aI6
aI7
aI6
aI8
aI60
aI59
aI60
aI8
aI7
aI7
aI44
aI59
aI59
aI58
aI7
aI6
aI7
aI60
aI61
aI60
aI7
aI7
aI7
aI7
aI44
aI58
aI58
aI7
aI8
aI6
aI8
aI17
aI37
aI63
aI58
aI60
aI50
aI7
aI9
aI7
aI7
aI54
aI59
aI58
aI58
aI6
aI6
aI5
aI16
aI24
aI65
aI65
aI66
aI59
aI60
aI60
aa(lp3
I46
aI46
aI43
aI46
aI43
aI46
aI45
aI44
aI45
aI45
aI45
aI44
aI44
aI51
aI47
aI45
aI46
aI47
aI50
aI44
aI46
aI151
aI548
aI542
aI521
aI45
aI45
aI43
aI45
aI45
aI47
aI46
aI398
aI531
aI548
aI124
aI45
aI43
aI44
aI42
aI45
aI47
aI185
aI532
aI538
aI503
aI47
aI43
aI43
aI44
aI44
aI46
aI65
aI508
aI519
aI559
aI45
aI47
aI47
aI505
aI103
aI46
aI45
aI48
aI570
aI648
aI565
aI533
aI532
aI47
aI47
aI45
aI49
aI554
aI549
aI441
aI43
aI43
aI44
aI44
aI528
aI537
aI388
aI48
aI43
aI44
aI44
aI44
aI45
aI505
aI561
aI508
aI197
aI44
aI49
aI44
aI43
aI571
aI577
aI568
aI576
aI47
aI47
aI44
aI43
aI59
aI547
aI675
aI526
aI43
aI45
aI44
aI51
aI570
aI565
aI427
aI46
aI45
aI46
aI522
aI520
aI541
aI49
aI46
aI45
aI43
aI43
aI518
aI575
aI581
aI491
aI45
aI45
aI46
aI578
aI554
aI572
aI47
aI44
aI51
aI572
aI573
aI534
aI562
aI556
aI44
aI43
aI47
aI548
aI507
aI569
aI47
aI47
aI52
aI54
aI558
aI559
aI470
aI45
aI49
aI50
aI635
aI613
aI559
aI516
aI42
aI43
aI44
aI494
aI369
aI538
aI335
aI42
aI44
aI43
aI45
aI46
aI356
aI582
aI497
aI556
aI429
aI47
aI45
aI45
aI47
aI530
aI537
aI622
aI45
aI43
aI43
aI47
aI46
aI42
aI45
aI44
aa(lp4
I697
aI697
aI60
aI136
aI173
aI86
aI57
aI105
aI99
aI88
aI79
aI445
aI98
aI80
aI85
aI137
aI160
aI639
aI733
aI464
aI61
aI54
aI49
aI89
aI157
aI105
aI59
aI178
aI191
aI151
aI174
aI65
aI79
aI122
aI110
aI94
aI88
aI91
aI78
aI146
aI93
aI127
aI100
aI63
aI157
aI189
aI113
aI133
aI210
aI93
aI48
aI94
aI60
aI116
aI106
aI59
aI58
aI127
aI112
aI56
aI119
aI110
aI62
aI78
aI177
aI190
aI200
aI60
aI104
aI207
aI222
aI160
aI129
aI121
aI53
aI140
aI123
aI123
aI133
aI118
aI98
aI122
aI144
aI104
aI97
aI121
aI84
aI107
aI127
aI115
aI184
aI155
aI90
aI58
aI155
aI150
aI188
aI202
aI173
aI145
aI112
aI81
aI129
aI61
aI86
aI91
aI144
aI104
aI81
aI173
aI70
aI146
aI95
aI114
aI79
aI66
aI172
aI105
aI89
aI52
aI48
aI129
aI114
aI53
aI51
aI65
aI69
aI56
aI65
aI178
aI133
aI121
aI203
aI179
aI154
aI157
aI157
aI149
aI123
aI92
aI64
aI137
aI107
aI64
aI221
aI206
aI83
aI172
aI248
aI123
aI138
aI150
aI141
aI128
aI65
aI160
aI61
aI111
aI181
aI261
aI182
aI282
aI222
aI171
aI158
aI143
aI63
aI60
aI125
aI81
aI89
aI84
aI63
aI132
aI433
aI58
aI224
aI223
aI230
aI255
aI198
aI74
aI135
aI98
aI54
aI57
aI57
aI82
aI86
aI56
aI70
aI613
aI686
aI717
aI94
aI212
aI180
aa(lp5
I13440
aI13440
aI53
aI107
aI161
aI216
aI267
aI321
aI375
aI430
aI481
aI535
aI589
aI640
aI691
aI745
aI799
aI854
aI905
aI959
aI1013
aI1068
aI1119
aI1173
aI1224
aI1278
aI1329
aI1380
aI1434
aI1485
aI1536
aI1590
aI1641
aI1695
aI1746
aI1797
aI1848
aI1902
aI1956
aI2008
aI2062
aI2116
aI2167
aI2222
aI2273
aI2327
aI2378
aI2433
aI2487
aI2538
aI2592
aI2647
aI2698
aI2752
aI2803
aI2857
aI2908
aI2959
aI3013
aI3064
aI3115
aI3166
aI3220
aI3274
aI3325
aI3376
aI3427
aI3481
aI3532
aI3587
aI3641
aI3692
aI3746
aI3798
aI3852
aI3906
aI3957
aI4012
aI4063
aI4117
aI4171
aI4222
aI4273
aI4324
aI4378
aI4432
aI4484
aI4538
aI4589
aI4643
aI4695
aI4749
aI4803
aI4854
aI4909
aI4960
aI5014
aI5068
aI5120
aI5174
aI5225
aI5279
aI5330
aI5381
aI5435
aI5486
aI5540
aI5591
aI5642
aI5696
aI5747
aI5801
aI5852
aI5903
aI5957
aI6008
aI6059
aI6110
aI6164
aI6218
aI6269
aI6320
aI6371
aI6425
aI6479
aI6531
aI6585
aI6639
aI6690
aI6745
aI6799
aI6850
aI6904
aI6956
aI7010
aI7064
aI7115
aI7170
aI7221
aI7275
aI7326
aI7380
aI7431
aI7482
aI7536
aI7587
aI7638
aI7692
aI7743
aI7797
aI7848
aI7899
aI7950
aI8004
aI8055
aI8110
aI8164
aI8215
aI8269
aI8321
aI8375
aI8429
aI8480
aI8535
aI8586
aI8640
aI8694
aI8745
aI8796
aI8847
aI8901
aI8955
aI9007
aI9061
aI9115
aI9166
aI9217
aI9271
aI9322
aI9376
aI9427
aI9478
aI9529
aI9583
aI9637
aI9689
aI9743
aI9794
aI9848
aI9899
aI9950
aI10004
aI10058
aI10109
aI10160
aI10211
aI10265
aa.