(lp0
(lp1
I30
aI24
aI18
aI13
aI12
aI12
aI12
aI12
aI12
aI11
aI63
aI61
aI60
aI61
aI62
aI63
aI62
aI62
aI62
aI62
aI62
aI62
aI62
aI63
aI64
aI62
aI59
aI53
aI46
aI39
aI48
aI60
aI61
aI63
aI63
aI63
aI62
aI62
aI62
aI62
aI62
aI62
aI62
aI62
aI62
aI62
aI63
aI63
aI63
aI63
aI62
aI63
aI63
aI62
aI62
aI62
aI62
aI62
aI62
aI62
aI63
aI63
aI64
aI64
aI64
aI64
aI63
aI62
aI63
aI63
aI63
aI63
aI63
aI63
aI63
aI62
aI63
aI63
aI64
aI63
aI61
aI58
aI53
aI48
aI42
aI37
aI31
aI26
aI21
aI15
aI12
aI12
aI12
aI12
aI12
aI12
aI12
aI12
aI12
aI12
aI12
aI12
aI12
aI12
aI12
aI12
aI12
aI12
aI12
aI12
aI12
aI11
aI11
aI11
aI11
aI11
aI12
aI12
aI12
aI12
aI12
aI12
aI12
aI12
aI12
aI12
aI12
aI12
aI12
aI65
aI65
aI65
aI65
aI62
aI61
aI62
aI64
aI65
aI66
aI66
aI66
aI66
aI66
aI65
aI65
aI63
aI61
aI59
aI58
aI55
aI52
aI50
aI50
aI49
aI50
aI53
aI60
aI63
aI66
aI66
aI65
aI65
aI64
aI63
aI64
aI65
aI65
aI65
aI66
aI66
aI66
aI65
aI64
aI64
aI65
aI64
aI63
aI63
aI63
aI64
aI64
aI65
aI65
aI65
aI65
aI66
aI65
aI65
aI65
aI65
aI65
aI65
aI65
aI65
aI65
aI65
aI65
aI65
aI65
aa(lp2
I40
aI46
aI52
aI57
aI58
aI58
aI58
aI58
aI58
aI59
aI7
aI9
aI10
aI9
aI8
aI7
aI8
aI8
aI8
aI8
aI8
aI8
aI8
aI7
aI6
aI8
aI11
aI17
aI24
aI31
aI22
aI10
aI9
aI7
aI7
aI7
aI8
aI8
aI8
aI8
aI8
aI8
aI8
aI8
aI8
aI8
aI7
aI7
aI7
aI7
aI8
aI7
aI7
aI8
aI8
aI8
aI8
aI8
aI8
aI8
aI7
aI7
aI6
aI6
aI6
aI6
aI7
aI8
aI7
aI7
aI7
aI7
aI7
aI7
aI7
aI8
aI7
aI7
aI6
aI7
aI9
aI12
aI17
aI22
aI28
aI33
aI39
aI44
aI49
aI55
aI58
aI58
aI58
aI58
aI58
aI58
aI58
aI58
aI58
aI58
aI58
aI58
aI58
aI58
aI58
aI58
aI58
aI58
aI58
aI58
aI58
aI59
aI59
aI59
aI59
aI59
aI58
aI58
aI58
aI58
aI58
aI58
aI58
aI58
aI58
aI58
aI58
aI58
aI58
aI5
aI5
aI5
aI5
aI8
aI9
aI8
aI6
aI5
aI4
aI4
aI4
aI4
aI4
aI5
aI5
aI7
aI9
aI11
aI12
aI15
aI18
aI20
aI20
aI21
aI20
aI17
aI10
aI7
aI4
aI4
aI5
aI5
aI6
aI7
aI6
aI5
aI5
aI5
aI4
aI4
aI4
aI5
aI6
aI6
aI5
aI6
aI7
aI7
aI7
aI6
aI6
aI5
aI5
aI5
aI5
aI4
aI5
aI5
aI5
aI5
aI5
aI5
aI5
aI5
aI5
aI5
aI5
aI5
aI5
aa(lp3
I43
aI43
aI46
aI48
aI46
aI44
aI43
aI43
aI45
aI119
aI774
aI795
aI794
aI794
aI793
aI773
aI746
aI748
aI755
aI763
aI776
aI781
aI778
aI747
aI725
aI448
aI109
aI46
aI46
aI51
aI68
aI294
aI427
aI588
aI748
aI756
aI776
aI772
aI779
aI792
aI799
aI798
aI802
aI802
aI802
aI801
aI801
aI801
aI787
aI700
aI549
aI578
aI568
aI554
aI501
aI568
aI563
aI491
aI514
aI530
aI618
aI598
aI701
aI706
aI700
aI731
aI761
aI693
aI732
aI760
aI753
aI756
aI747
aI756
aI752
aI736
aI750
aI769
aI741
aI570
aI298
aI53
aI47
aI46
aI45
aI44
aI43
aI44
aI44
aI44
aI44
aI48
aI46
aI45
aI45
aI44
aI44
aI44
aI43
aI43
aI44
aI44
aI44
aI45
aI45
aI44
aI44
aI44
aI43
aI43
aI43
aI44
aI43
aI44
aI44
aI43
aI46
aI45
aI45
aI45
aI44
aI44
aI44
aI44
aI44
aI44
aI44
aI44
aI53
aI729
aI830
aI830
aI740
aI413
aI286
aI334
aI516
aI688
aI732
aI791
aI796
aI735
aI742
aI710
aI679
aI496
aI273
aI116
aI50
aI48
aI49
aI51
aI51
aI53
aI53
aI68
aI196
aI474
aI788
aI832
aI833
aI834
aI835
aI836
aI836
aI836
aI836
aI834
aI825
aI786
aI814
aI833
aI836
aI835
aI835
aI836
aI836
aI837
aI837
aI837
aI837
aI836
aI836
aI835
aI834
aI833
aI822
aI801
aI834
aI833
aI823
aI801
aI789
aI793
aI828
aI834
aI835
aI835
aI836
aa(lp4
I54
aI54
aI55
aI56
aI56
aI55
aI55
aI55
aI60
aI143
aI428
aI575
aI643
aI610
aI508
aI411
aI407
aI416
aI437
aI491
aI518
aI518
aI448
aI365
aI275
aI161
aI80
aI57
aI57
aI67
aI88
aI179
aI212
aI242
aI343
aI408
aI439
aI450
aI484
aI530
aI532
aI527
aI519
aI515
aI500
aI472
aI451
aI434
aI367
aI287
aI269
aI230
aI221
aI224
aI228
aI254
aI251
aI240
aI237
aI231
aI227
aI210
aI221
aI223
aI232
aI264
aI339
aI368
aI345
aI344
aI355
aI388
aI392
aI406
aI406
aI398
aI399
aI377
aI304
aI187
aI109
aI60
aI55
aI55
aI54
aI54
aI53
aI52
aI52
aI53
aI53
aI53
aI53
aI53
aI53
aI53
aI53
aI53
aI52
aI52
aI53
aI53
aI53
aI53
aI53
aI53
aI53
aI53
aI54
aI55
aI60
aI68
aI68
aI86
aI95
aI67
aI53
aI53
aI53
aI53
aI53
aI52
aI52
aI53
aI53
aI53
aI52
aI53
aI55
aI141
aI251
aI261
aI146
aI76
aI67
aI69
aI82
aI96
aI98
aI125
aI131
aI96
aI128
aI124
aI94
aI74
aI60
aI56
aI54
aI53
aI53
aI53
aI53
aI53
aI54
aI54
aI56
aI81
aI153
aI218
aI259
aI299
aI341
aI415
aI360
aI302
aI289
aI228
aI166
aI123
aI145
aI239
aI358
aI331
aI302
aI382
aI415
aI423
aI420
aI384
aI353
aI301
aI257
aI230
aI228
aI208
aI210
aI218
aI233
aI244
aI240
aI217
aI209
aI209
aI225
aI227
aI230
aI248
aI273
aa(lp5
I53
aI107
aI161
aI212
aI263
aI317
aI371
aI422
aI473
aI527
aI581
aI632
aI683
aI734
aI788
aI842
aI893
aI944
aI995
aI1049
aI1100
aI1155
aI1206
aI1260
aI1314
aI1366
aI1420
aI1471
aI1525
aI1576
aI1627
aI1681
aI1732
aI1783
aI1838
aI1892
aI1943
aI1997
aI2049
aI2103
aI2154
aI2208
aI2259
aI2310
aI2361
aI2415
aI2466
aI2521
aI2572
aI2626
aI2677
aI2732
aI2786
aI2837
aI2891
aI2942
aI2993
aI3044
aI3098
aI3149
aI3200
aI3251
aI3305
aI3356
aI3410
aI3462
aI3516
aI3570
aI3621
aI3672
aI3723
aI3777
aI3828
aI3883
aI3934
aI3988
aI4039
aI4093
aI4145
aI4199
aI4250
aI4304
aI4355
aI4406
aI4460
aI4511
aI4566
aI4620
aI4671
aI4725
aI4776
aI4827
aI4881
aI4932
aI4986
aI5037
aI5088
aI5142
aI5196
aI5248
aI5302
aI5356
aI5407
aI5462
aI5516
aI5567
aI5621
aI5676
aI5730
aI5781
aI5835
aI5890
aI5941
aI5995
aI6049
aI6100
aI6151
aI6205
aI6256
aI6310
aI6361
aI6412
aI6466
aI6520
aI6572
aI6626
aI6680
aI6734
aI6786
aI6840
aI6891
aI6945
aI7000
aI7051
aI7105
aI7156
aI7211
aI7265
aI7316
aI7370
aI7421
aI7472
aI7523
aI7577
aI7631
aI7683
aI7737
aI7788
aI7842
aI7897
aI7948
aI8002
aI8053
aI8108
aI8162
aI8213
aI8267
aI8322
aI8373
aI8427
aI8478
aI8532
aI8584
aI8638
aI8692
aI8743
aI8794
aI8845
aI8899
aI8950
aI9005
aI9056
aI9110
aI9164
aI9216
aI9270
aI9321
aI9375
aI9426
aI9477
aI9528
aI9582
aI9636
aI9688
aI9742
aI9793
aI9847
aI9899
aI9953
aI10004
aI10058
aI10109
aI10160
aI10211
aI10265
aI10316
aI10371
aI10422
aI10476
aa.