(lp0
(lp1
I61
aI9
aI12
aI10
aI11
aI11
aI10
aI11
aI11
aI12
aI10
aI12
aI11
aI11
aI11
aI11
aI11
aI11
aI12
aI12
aI11
aI11
aI11
aI10
aI10
aI11
aI11
aI11
aI11
aI10
aI10
aI11
aI11
aI10
aI10
aI11
aI10
aI10
aI10
aI10
aI11
aI11
aI11
aI10
aI9
aI9
aI9
aI10
aI10
aI10
aI11
aI10
aI10
aI10
aI10
aI10
aI10
aI10
aI9
aI11
aI11
aI10
aI11
aI11
aI10
aI10
aI10
aI9
aI9
aI11
aI11
aI12
aI66
aI61
aI4
aI3
aI63
aI59
aI58
aI55
aI52
aI50
aI49
aI48
aI47
aI47
aI46
aI46
aI45
aI44
aI44
aI43
aI43
aI43
aI42
aI42
aI41
aI41
aI41
aI40
aI40
aI39
aI39
aI38
aI38
aI37
aI37
aI36
aI36
aI35
aI35
aI35
aI35
aI35
aI35
aI35
aI35
aI34
aI33
aI32
aI31
aI31
aI32
aI35
aI49
aI61
aI60
aI48
aI11
aI11
aI11
aI12
aI12
aI12
aI12
aI12
aI12
aI12
aI12
aI14
aI18
aI24
aI36
aI60
aI61
aI60
aI43
aI7
aI4
aI2
aI2
aI2
aI2
aI2
aI2
aI2
aI3
aI7
aI10
aI9
aI9
aI9
aI10
aI11
aI13
aI12
aI12
aI12
aI12
aI12
aI11
aI48
aI60
aI59
aI59
aI59
aI60
aI10
aI11
aI12
aI12
aI11
aI11
aI11
aI11
aI11
aI11
aI10
aI62
aI9
aI5
aI5
aI5
aI5
aI11
aI10
aI63
aa(lp2
I9
aI61
aI58
aI60
aI59
aI59
aI60
aI59
aI59
aI58
aI60
aI58
aI59
aI59
aI59
aI59
aI59
aI59
aI58
aI58
aI59
aI59
aI59
aI60
aI60
aI59
aI59
aI59
aI59
aI60
aI60
aI59
aI59
aI60
aI60
aI59
aI60
aI60
aI60
aI60
aI59
aI59
aI59
aI60
aI61
aI61
aI61
aI60
aI60
aI60
aI59
aI60
aI60
aI60
aI60
aI60
aI60
aI60
aI61
aI59
aI59
aI60
aI59
aI59
aI60
aI60
aI60
aI61
aI61
aI59
aI59
aI58
aI4
aI9
aI66
aI67
aI7
aI11
aI12
aI15
aI18
aI20
aI21
aI22
aI23
aI23
aI24
aI24
aI25
aI26
aI26
aI27
aI27
aI27
aI28
aI28
aI29
aI29
aI29
aI30
aI30
aI31
aI31
aI32
aI32
aI33
aI33
aI34
aI34
aI35
aI35
aI35
aI35
aI35
aI35
aI35
aI35
aI36
aI37
aI38
aI39
aI39
aI38
aI35
aI21
aI9
aI10
aI22
aI59
aI59
aI59
aI58
aI58
aI58
aI58
aI58
aI58
aI58
aI58
aI56
aI52
aI46
aI34
aI10
aI9
aI10
aI27
aI63
aI66
aI68
aI68
aI68
aI68
aI68
aI68
aI68
aI67
aI63
aI60
aI61
aI61
aI61
aI60
aI59
aI57
aI58
aI58
aI58
aI58
aI58
aI59
aI22
aI10
aI11
aI11
aI11
aI10
aI60
aI59
aI58
aI58
aI59
aI59
aI59
aI59
aI59
aI59
aI60
aI8
aI61
aI65
aI65
aI65
aI65
aI59
aI60
aI7
aa(lp3
I369
aI45
aI61
aI46
aI45
aI45
aI47
aI46
aI46
aI45
aI46
aI43
aI44
aI44
aI41
aI45
aI43
aI48
aI43
aI44
aI46
aI47
aI45
aI48
aI46
aI47
aI44
aI43
aI47
aI45
aI45
aI45
aI43
aI47
aI47
aI44
aI43
aI43
aI46
aI45
aI44
aI44
aI43
aI41
aI49
aI55
aI47
aI48
aI47
aI45
aI45
aI45
aI46
aI45
aI46
aI48
aI46
aI49
aI46
aI46
aI45
aI45
aI43
aI44
aI43
aI46
aI47
aI48
aI48
aI44
aI43
aI44
aI846
aI847
aI217
aI44
aI467
aI935
aI986
aI1004
aI1010
aI1015
aI1017
aI1019
aI1020
aI1021
aI1021
aI1021
aI1021
aI1021
aI1020
aI1020
aI1021
aI1022
aI1023
aI1022
aI1022
aI1022
aI1022
aI1022
aI1022
aI1022
aI1022
aI1022
aI1022
aI1023
aI1023
aI1022
aI1022
aI1022
aI1022
aI1022
aI1022
aI1022
aI1022
aI1021
aI1021
aI1019
aI1016
aI1012
aI1007
aI1001
aI991
aI969
aI926
aI848
aI810
aI842
aI861
aI917
aI967
aI988
aI995
aI998
aI1000
aI1002
aI1002
aI1002
aI999
aI994
aI981
aI956
aI906
aI810
aI774
aI723
aI552
aI376
aI205
aI54
aI47
aI44
aI42
aI42
aI42
aI44
aI51
aI85
aI57
aI130
aI57
aI79
aI118
aI141
aI205
aI203
aI210
aI235
aI289
aI227
aI229
aI767
aI979
aI974
aI977
aI927
aI189
aI47
aI43
aI44
aI45
aI44
aI44
aI46
aI44
aI44
aI46
aI46
aI608
aI46
aI46
aI47
aI46
aI44
aI46
aI50
aI676
aa(lp4
I186
aI267
aI55
aI164
aI152
aI145
aI161
aI89
aI80
aI57
aI216
aI58
aI141
aI115
aI126
aI86
aI71
aI113
aI65
aI63
aI116
aI147
aI155
aI175
aI166
aI142
aI127
aI118
aI147
aI169
aI182
aI148
aI114
aI166
aI208
aI139
aI214
aI164
aI227
aI163
aI97
aI146
aI145
aI204
aI281
aI262
aI271
aI173
aI199
aI217
aI123
aI191
aI203
aI212
aI188
aI207
aI216
aI207
aI251
aI107
aI129
aI180
aI132
aI154
aI220
aI250
aI201
aI281
aI288
aI148
aI95
aI64
aI192
aI627
aI877
aI875
aI72
aI888
aI990
aI1008
aI1015
aI1018
aI1019
aI1020
aI1021
aI1021
aI1022
aI1022
aI1022
aI1022
aI1021
aI1021
aI1021
aI1022
aI1023
aI1023
aI1023
aI1023
aI1023
aI1023
aI1022
aI1023
aI1023
aI1022
aI1023
aI1023
aI1023
aI1023
aI1023
aI1023
aI1022
aI1022
aI1022
aI1022
aI1022
aI1022
aI1021
aI1020
aI1018
aI1014
aI1009
aI1002
aI986
aI960
aI882
aI635
aI711
aI887
aI932
aI975
aI997
aI1003
aI1007
aI1004
aI1002
aI1002
aI1003
aI1002
aI998
aI989
aI974
aI941
aI867
aI664
aI611
aI635
aI644
aI765
aI926
aI965
aI909
aI885
aI885
aI885
aI888
aI886
aI877
aI534
aI247
aI344
aI274
aI304
aI305
aI171
aI206
aI219
aI229
aI253
aI296
aI249
aI270
aI525
aI903
aI944
aI964
aI918
aI102
aI202
aI126
aI53
aI64
aI83
aI94
aI99
aI105
aI137
aI131
aI250
aI297
aI259
aI700
aI685
aI698
aI699
aI96
aI220
aI276
aa(lp5
I13624
aI53
aI107
aI161
aI216
aI267
aI321
aI375
aI430
aI481
aI535
aI589
aI640
aI691
aI745
aI799
aI850
aI901
aI955
aI1009
aI1060
aI1111
aI1162
aI1216
aI1270
aI1321
aI1372
aI1423
aI1477
aI1531
aI1583
aI1637
aI1688
aI1742
aI1793
aI1844
aI1898
aI1949
aI2003
aI2054
aI2105
aI2159
aI2213
aI2265
aI2319
aI2370
aI2424
aI2475
aI2526
aI2580
aI2634
aI2685
aI2736
aI2787
aI2841
aI2895
aI2947
aI3001
aI3052
aI3106
aI3161
aI3212
aI3266
aI3320
aI3372
aI3426
aI3477
aI3531
aI3586
aI3640
aI3691
aI3745
aI3800
aI3851
aI3905
aI3956
aI4011
aI4065
aI4116
aI4167
aI4221
aI4273
aI4324
aI4375
aI4429
aI4481
aI4532
aI4583
aI4637
aI4688
aI4740
aI4791
aI4842
aI4896
aI4947
aI4999
aI5053
aI5104
aI5155
aI5207
aI5261
aI5312
aI5363
aI5414
aI5465
aI5516
aI5567
aI5618
aI5672
aI5724
aI5775
aI5829
aI5880
aI5931
aI5982
aI6033
aI6087
aI6138
aI6190
aI6241
aI6295
aI6346
aI6397
aI6449
aI6503
aI6554
aI6608
aI6660
aI6714
aI6765
aI6819
aI6871
aI6925
aI6976
aI7027
aI7081
aI7133
aI7184
aI7238
aI7289
aI7340
aI7391
aI7442
aI7496
aI7547
aI7598
aI7649
aI7703
aI7754
aI7809
aI7863
aI7914
aI7968
aI8023
aI8077
aI8128
aI8182
aI8237
aI8288
aI8342
aI8396
aI8448
aI8502
aI8556
aI8607
aI8662
aI8713
aI8767
aI8818
aI8872
aI8924
aI8978
aI9029
aI9080
aI9131
aI9182
aI9236
aI9287
aI9341
aI9393
aI9447
aI9501
aI9552
aI9603
aI9657
aI9708
aI9762
aI9817
aI9868
aI9922
aI9973
aI10028
aI10082
aI10133
aI10187
aI10242
aI10293
aa.