(lp0
(lp1
I6
aI6
aI12
aI12
aI11
aI5
aI11
aI12
aI23
aI15
aI11
aI11
aI10
aI11
aI11
aI11
aI10
aI11
aI11
aI12
aI12
aI12
aI11
aI11
aI11
aI11
aI11
aI12
aI12
aI11
aI11
aI11
aI5
aI7
aI11
aI64
aI63
aI63
aI64
aI55
aI22
aI11
aI11
aI11
aI12
aI12
aI12
aI11
aI47
aI63
aI63
aI39
aI30
aI10
aI9
aI11
aI11
aI12
aI11
aI64
aI64
aI64
aI49
aI59
aI6
aI5
aI5
aI5
aI4
aI12
aI65
aI65
aI65
aI64
aI65
aI42
aI11
aI11
aI10
aI12
aI12
aI64
aI64
aI64
aI54
aI27
aI17
aI12
aI11
aI11
aI64
aI63
aI64
aI63
aI38
aI11
aI11
aI63
aI63
aI63
aI61
aI16
aI63
aI66
aI66
aI57
aI7
aI54
aI46
aI39
aI29
aI59
aI61
aI36
aI24
aI15
aI11
aI11
aI11
aI12
aI12
aI11
aI11
aI11
aI5
aI7
aI59
aI50
aI9
aI9
aI10
aI10
aI10
aI11
aI10
aI10
aI10
aI9
aI10
aI10
aI10
aI11
aI10
aI11
aI11
aI10
aI10
aI10
aI10
aI10
aI10
aI9
aI10
aI9
aI11
aI4
aI5
aI62
aI19
aI11
aI11
aI10
aI10
aI10
aI9
aI10
aI10
aI10
aI11
aI10
aI11
aI12
aI12
aI12
aI11
aI12
aI12
aI11
aI11
aI11
aI4
aI10
aI63
aI10
aI10
aI10
aI11
aI11
aI10
aI12
aI11
aI11
aI10
aI10
aI10
aI11
aI11
aa(lp2
I64
aI64
aI58
aI58
aI59
aI65
aI59
aI58
aI47
aI55
aI59
aI59
aI60
aI59
aI59
aI59
aI60
aI59
aI59
aI58
aI58
aI58
aI59
aI59
aI59
aI59
aI59
aI58
aI58
aI59
aI59
aI59
aI65
aI63
aI59
aI6
aI7
aI7
aI6
aI15
aI48
aI59
aI59
aI59
aI58
aI58
aI58
aI59
aI23
aI7
aI7
aI31
aI40
aI60
aI61
aI59
aI59
aI58
aI59
aI6
aI6
aI6
aI21
aI11
aI64
aI65
aI65
aI65
aI66
aI58
aI5
aI5
aI5
aI6
aI5
aI28
aI59
aI59
aI60
aI58
aI58
aI6
aI6
aI6
aI16
aI43
aI53
aI58
aI59
aI59
aI6
aI7
aI6
aI7
aI32
aI59
aI59
aI7
aI7
aI7
aI9
aI54
aI7
aI4
aI4
aI13
aI63
aI16
aI24
aI31
aI41
aI11
aI9
aI34
aI46
aI55
aI59
aI59
aI59
aI58
aI58
aI59
aI59
aI59
aI65
aI63
aI11
aI20
aI61
aI61
aI60
aI60
aI60
aI59
aI60
aI60
aI60
aI61
aI60
aI60
aI60
aI59
aI60
aI59
aI59
aI60
aI60
aI60
aI60
aI60
aI60
aI61
aI60
aI61
aI59
aI66
aI65
aI8
aI51
aI59
aI59
aI60
aI60
aI60
aI61
aI60
aI60
aI60
aI59
aI60
aI59
aI58
aI58
aI58
aI59
aI58
aI58
aI59
aI59
aI59
aI66
aI60
aI7
aI60
aI60
aI60
aI59
aI59
aI60
aI58
aI59
aI59
aI60
aI60
aI60
aI59
aI59
aa(lp3
I47
aI47
aI44
aI44
aI44
aI48
aI564
aI45
aI74
aI45
aI44
aI41
aI45
aI42
aI48
aI45
aI44
aI46
aI43
aI44
aI46
aI44
aI43
aI43
aI45
aI44
aI45
aI47
aI42
aI47
aI44
aI44
aI45
aI47
aI45
aI582
aI558
aI548
aI579
aI167
aI44
aI44
aI44
aI46
aI47
aI43
aI45
aI46
aI352
aI503
aI464
aI45
aI44
aI47
aI43
aI44
aI42
aI42
aI44
aI540
aI551
aI553
aI48
aI147
aI44
aI46
aI45
aI43
aI42
aI45
aI603
aI615
aI611
aI590
aI573
aI45
aI44
aI45
aI44
aI45
aI47
aI523
aI502
aI526
aI44
aI45
aI45
aI45
aI43
aI43
aI570
aI568
aI607
aI625
aI51
aI46
aI44
aI545
aI525
aI540
aI265
aI47
aI442
aI766
aI855
aI620
aI75
aI48
aI51
aI44
aI51
aI148
aI241
aI48
aI46
aI44
aI45
aI46
aI42
aI45
aI45
aI46
aI46
aI43
aI42
aI49
aI607
aI99
aI45
aI48
aI44
aI48
aI47
aI45
aI44
aI43
aI49
aI48
aI51
aI47
aI46
aI46
aI46
aI46
aI44
aI44
aI44
aI44
aI45
aI49
aI44
aI46
aI45
aI45
aI43
aI48
aI45
aI616
aI50
aI44
aI44
aI45
aI49
aI49
aI64
aI48
aI45
aI45
aI44
aI44
aI42
aI45
aI44
aI43
aI42
aI47
aI48
aI44
aI48
aI46
aI45
aI49
aI642
aI49
aI62
aI44
aI48
aI46
aI45
aI45
aI46
aI47
aI46
aI44
aI47
aI47
aI46
aa(lp4
I525
aI525
aI74
aI58
aI153
aI662
aI671
aI56
aI52
aI67
aI74
aI123
aI172
aI67
aI138
aI117
aI159
aI155
aI75
aI51
aI55
aI49
aI114
aI77
aI85
aI134
aI101
aI56
aI53
aI76
aI141
aI67
aI650
aI523
aI76
aI147
aI169
aI197
aI131
aI234
aI78
aI99
aI153
aI71
aI51
aI65
aI55
aI86
aI65
aI127
aI77
aI81
aI61
aI246
aI332
aI97
aI136
aI49
aI71
aI73
aI106
aI77
aI56
aI84
aI564
aI628
aI633
aI657
aI711
aI54
aI59
aI67
aI59
aI79
aI49
aI147
aI137
aI135
aI196
aI64
aI68
aI86
aI66
aI63
aI51
aI50
aI51
aI55
aI109
aI151
aI61
aI141
aI128
aI204
aI239
aI101
aI136
aI117
aI119
aI146
aI100
aI61
aI95
aI128
aI175
aI621
aI531
aI71
aI56
aI50
aI89
aI109
aI58
aI66
aI85
aI59
aI117
aI95
aI68
aI63
aI65
aI78
aI84
aI134
aI682
aI523
aI259
aI252
aI252
aI304
aI220
aI249
aI220
aI115
aI229
aI212
aI188
aI268
aI219
aI189
aI178
aI89
aI200
aI89
aI81
aI160
aI202
aI185
aI230
aI232
aI228
aI260
aI194
aI262
aI133
aI756
aI650
aI280
aI151
aI102
aI134
aI212
aI170
aI243
aI281
aI228
aI167
aI215
aI116
aI182
aI124
aI57
aI57
aI52
aI76
aI49
aI55
aI81
aI77
aI105
aI720
aI250
aI298
aI211
aI202
aI194
aI161
aI129
aI161
aI53
aI149
aI147
aI222
aI236
aI195
aI123
aI117
aa(lp5
I11738
aI11738
aI53
aI107
aI161
aI216
aI267
aI321
aI375
aI427
aI481
aI535
aI589
aI641
aI695
aI749
aI803
aI855
aI909
aI963
aI1014
aI1069
aI1123
aI1174
aI1228
aI1283
aI1334
aI1388
aI1442
aI1494
aI1548
aI1602
aI1653
aI1708
aI1762
aI1813
aI1867
aI1918
aI1969
aI2023
aI2074
aI2128
aI2180
aI2234
aI2288
aI2339
aI2390
aI2444
aI2495
aI2549
aI2600
aI2651
aI2702
aI2756
aI2810
aI2862
aI2916
aI2970
aI3021
aI3072
aI3126
aI3177
aI3231
aI3282
aI3333
aI3387
aI3438
aI3492
aI3543
aI3594
aI3648
aI3702
aI3753
aI3804
aI3858
aI3909
aI3963
aI4015
aI4069
aI4123
aI4174
aI4225
aI4276
aI4330
aI4384
aI4435
aI4486
aI4540
aI4591
aI4645
aI4697
aI4751
aI4802
aI4856
aI4907
aI4958
aI5012
aI5063
aI5117
aI5169
aI5223
aI5274
aI5328
aI5379
aI5430
aI5484
aI5535
aI5590
aI5641
aI5695
aI5749
aI5800
aI5851
aI5902
aI5956
aI6010
aI6062
aI6116
aI6167
aI6221
aI6272
aI6323
aI6377
aI6431
aI6482
aI6533
aI6587
aI6638
aI6692
aI6744
aI6798
aI6852
aI6903
aI6958
aI7012
aI7063
aI7117
aI7169
aI7223
aI7277
aI7328
aI7383
aI7437
aI7488
aI7542
aI7597
aI7648
aI7702
aI7756
aI7808
aI7862
aI7913
aI7967
aI8022
aI8076
aI8127
aI8181
aI8236
aI8287
aI8341
aI8392
aI8446
aI8498
aI8552
aI8606
aI8657
aI8708
aI8762
aI8813
aI8867
aI8919
aI8973
aI9027
aI9078
aI9133
aI9187
aI9238
aI9292
aI9347
aI9398
aI9452
aI9506
aI9558
aI9612
aI9666
aI9717
aI9772
aI9823
aI9877
aI9931
aI9982
aI10033
aI10084
aI10138
aI10189
aI10240
aI10291
aa.