(lp0
(lp1
I11
aI11
aI11
aI11
aI11
aI10
aI10
aI10
aI9
aI10
aI10
aI9
aI11
aI11
aI12
aI11
aI11
aI10
aI10
aI10
aI10
aI10
aI10
aI10
aI11
aI63
aI60
aI5
aI4
aI6
aI6
aI6
aI5
aI9
aI9
aI7
aI4
aI5
aI11
aI11
aI64
aI63
aI64
aI63
aI51
aI12
aI10
aI11
aI10
aI10
aI41
aI62
aI61
aI10
aI10
aI10
aI11
aI11
aI11
aI12
aI11
aI10
aI11
aI10
aI10
aI10
aI10
aI11
aI64
aI63
aI64
aI52
aI40
aI34
aI9
aI7
aI11
aI11
aI12
aI17
aI64
aI64
aI64
aI24
aI10
aI10
aI11
aI64
aI64
aI63
aI11
aI11
aI12
aI53
aI64
aI64
aI59
aI44
aI16
aI9
aI10
aI11
aI10
aI10
aI63
aI64
aI65
aI51
aI11
aI10
aI11
aI11
aI10
aI65
aI65
aI66
aI61
aI18
aI10
aI11
aI10
aI10
aI63
aI63
aI62
aI10
aI10
aI11
aI63
aI64
aI58
aI41
aI27
aI9
aI11
aI12
aI11
aI11
aI11
aI65
aI65
aI63
aI10
aI9
aI10
aI11
aI64
aI63
aI62
aI46
aI38
aI6
aI10
aI6
aI12
aI59
aI57
aI6
aI5
aI6
aI12
aI11
aI12
aI11
aI65
aI63
aI63
aI54
aI47
aI30
aI6
aI10
aI10
aI11
aI64
aI65
aI64
aI63
aI59
aI25
aI10
aI11
aI12
aI11
aI30
aI64
aI63
aI63
aI37
aI11
aI29
aI30
aI16
aI13
aI11
aI12
aa(lp2
I59
aI59
aI59
aI59
aI59
aI60
aI60
aI60
aI61
aI60
aI60
aI61
aI59
aI59
aI58
aI59
aI59
aI60
aI60
aI60
aI60
aI60
aI60
aI60
aI59
aI7
aI10
aI65
aI66
aI64
aI64
aI64
aI65
aI61
aI61
aI63
aI66
aI65
aI59
aI59
aI6
aI7
aI6
aI7
aI19
aI58
aI60
aI59
aI60
aI60
aI29
aI8
aI9
aI60
aI60
aI60
aI59
aI59
aI59
aI58
aI59
aI60
aI59
aI60
aI60
aI60
aI60
aI59
aI6
aI7
aI6
aI18
aI30
aI36
aI61
aI63
aI59
aI59
aI58
aI53
aI6
aI6
aI6
aI46
aI60
aI60
aI59
aI6
aI6
aI7
aI59
aI59
aI58
aI17
aI6
aI6
aI11
aI26
aI54
aI61
aI60
aI59
aI60
aI60
aI7
aI6
aI5
aI19
aI59
aI60
aI59
aI59
aI60
aI5
aI5
aI4
aI9
aI52
aI60
aI59
aI60
aI60
aI7
aI7
aI8
aI60
aI60
aI59
aI7
aI6
aI12
aI29
aI43
aI61
aI59
aI58
aI59
aI59
aI59
aI5
aI5
aI7
aI60
aI61
aI60
aI59
aI6
aI7
aI8
aI24
aI32
aI64
aI60
aI64
aI58
aI11
aI13
aI64
aI65
aI64
aI58
aI59
aI58
aI59
aI5
aI7
aI7
aI16
aI23
aI40
aI64
aI60
aI60
aI59
aI6
aI5
aI6
aI7
aI11
aI45
aI60
aI59
aI58
aI59
aI40
aI6
aI7
aI7
aI33
aI59
aI41
aI40
aI54
aI57
aI59
aI58
aa(lp3
I44
aI44
aI48
aI45
aI46
aI46
aI44
aI46
aI51
aI53
aI53
aI51
aI44
aI47
aI41
aI45
aI50
aI47
aI46
aI48
aI47
aI51
aI53
aI46
aI45
aI578
aI559
aI48
aI44
aI44
aI46
aI46
aI53
aI651
aI577
aI45
aI50
aI43
aI44
aI44
aI513
aI591
aI579
aI743
aI276
aI46
aI47
aI44
aI46
aI48
aI340
aI534
aI282
aI46
aI46
aI45
aI43
aI44
aI45
aI44
aI44
aI45
aI43
aI44
aI44
aI46
aI45
aI47
aI556
aI550
aI529
aI44
aI45
aI45
aI53
aI53
aI45
aI44
aI44
aI217
aI568
aI585
aI606
aI44
aI45
aI42
aI46
aI544
aI601
aI432
aI44
aI42
aI49
aI419
aI581
aI520
aI57
aI42
aI43
aI46
aI44
aI45
aI48
aI46
aI574
aI610
aI627
aI47
aI47
aI44
aI44
aI45
aI43
aI730
aI662
aI710
aI236
aI45
aI46
aI46
aI46
aI140
aI671
aI658
aI599
aI48
aI45
aI102
aI590
aI611
aI52
aI45
aI45
aI42
aI44
aI44
aI47
aI45
aI45
aI661
aI623
aI488
aI43
aI44
aI42
aI44
aI561
aI543
aI338
aI49
aI47
aI61
aI500
aI124
aI368
aI50
aI51
aI45
aI43
aI45
aI43
aI45
aI47
aI48
aI610
aI501
aI465
aI44
aI47
aI44
aI45
aI45
aI43
aI45
aI568
aI608
aI532
aI525
aI56
aI44
aI43
aI46
aI44
aI43
aI320
aI570
aI558
aI448
aI44
aI45
aI52
aI44
aI50
aI47
aI46
aI52
aa(lp4
I86
aI86
aI92
aI73
aI156
aI207
aI177
aI217
aI276
aI257
aI236
aI286
aI149
aI109
aI54
aI125
aI133
aI210
aI235
aI240
aI214
aI179
aI186
aI170
aI126
aI199
aI473
aI657
aI754
aI603
aI612
aI576
aI634
aI880
aI871
aI506
aI730
aI681
aI110
aI68
aI48
aI184
aI87
aI402
aI376
aI65
aI181
aI107
aI228
aI168
aI91
aI194
aI109
aI176
aI177
aI202
aI125
aI110
aI86
aI61
aI86
aI162
aI146
aI190
aI179
aI186
aI184
aI150
aI122
aI132
aI73
aI75
aI60
aI54
aI319
aI457
aI105
aI153
aI58
aI127
aI71
aI133
aI157
aI168
aI172
aI201
aI119
aI111
aI116
aI72
aI128
aI66
aI51
aI81
aI92
aI62
aI57
aI98
aI83
aI304
aI160
aI89
aI223
aI188
aI222
aI106
aI86
aI106
aI134
aI182
aI135
aI85
aI166
aI206
aI113
aI63
aI75
aI210
aI181
aI157
aI195
aI333
aI320
aI289
aI297
aI233
aI185
aI194
aI167
aI176
aI61
aI96
aI79
aI286
aI147
aI52
aI85
aI113
aI82
aI114
aI98
aI125
aI193
aI264
aI192
aI110
aI60
aI129
aI55
aI85
aI48
aI611
aI703
aI612
aI376
aI51
aI59
aI607
aI662
aI583
aI56
aI109
aI61
aI113
aI77
aI84
aI58
aI57
aI52
aI95
aI552
aI199
aI182
aI80
aI65
aI73
aI80
aI131
aI53
aI154
aI166
aI99
aI53
aI90
aI86
aI75
aI191
aI50
aI114
aI140
aI55
aI57
aI53
aI57
aI69
aI71
aa(lp5
I252553
aI252553
aI53
aI107
aI161
aI216
aI267
aI321
aI375
aI430
aI481
aI535
aI589
aI640
aI691
aI745
aI799
aI854
aI905
aI959
aI1013
aI1064
aI1115
aI1166
aI1220
aI1274
aI1326
aI1380
aI1431
aI1485
aI1536
aI1587
aI1641
aI1695
aI1746
aI1797
aI1851
aI1902
aI1956
aI2007
aI2058
aI2112
aI2166
aI2217
aI2268
aI2319
aI2373
aI2424
aI2475
aI2529
aI2580
aI2634
aI2685
aI2736
aI2787
aI2841
aI2895
aI2947
aI3001
aI3052
aI3106
aI3161
aI3212
aI3266
aI3320
aI3372
aI3426
aI3480
aI3531
aI3586
aI3637
aI3691
aI3742
aI3796
aI3847
aI3898
aI3952
aI4006
aI4058
aI4112
aI4163
aI4217
aI4269
aI4323
aI4377
aI4428
aI4483
aI4534
aI4588
aI4639
aI4694
aI4748
aI4799
aI4853
aI4908
aI4959
aI5013
aI5067
aI5118
aI5169
aI5223
aI5274
aI5328
aI5380
aI5434
aI5488
aI5539
aI5590
aI5641
aI5695
aI5746
aI5800
aI5851
aI5902
aI5956
aI6007
aI6062
aI6116
aI6167
aI6221
aI6273
aI6327
aI6381
aI6432
aI6487
aI6538
aI6592
aI6643
aI6697
aI6749
aI6803
aI6857
aI6908
aI6959
aI7013
aI7064
aI7118
aI7170
aI7224
aI7278
aI7329
aI7384
aI7438
aI7489
aI7543
aI7595
aI7649
aI7703
aI7754
aI7809
aI7860
aI7914
aI7968
aI8019
aI8070
aI8121
aI8175
aI8229
aI8281
aI8335
aI8389
aI8440
aI8491
aI8545
aI8596
aI8650
aI8701
aI8752
aI8803
aI8857
aI8911
aI8962
aI9013
aI9067
aI9118
aI9172
aI9223
aI9274
aI9328
aI9379
aI9430
aI9484
aI9535
aI9589
aI9644
aI9695
aI9749
aI9800
aI9854
aI9905
aI9956
aI10010
aI10061
aI10112
aI10163
aI10217
aa.